target datalayout = "e-m:e-p270:32:32-p271:32:32-p272:64:64-i64:64-i128:128-f80:128-n8:16:32:64-S128"
target triple = "x86_64-pc-linux-gnu"

%"class.open_spiel::solitaire::Card" = type { i32, i32, i32, i8, i32 }

; Function Attrs: mustprogress nounwind uwtable
define noundef zeroext i1 @_ZNK10open_spiel9solitaire4CardltERKS1_(ptr noundef nonnull align 4 dereferenceable(20) %0, ptr noundef nonnull align 4 dereferenceable(20) %1) #5 align 2 {
  %3 = alloca i1, align 1
  %4 = alloca ptr, align 8
  %5 = alloca ptr, align 8
  store ptr %0, ptr %4, align 8
  store ptr %1, ptr %5, align 8
  %6 = load ptr, ptr %4, align 8
  %7 = getelementptr inbounds nuw %"class.open_spiel::solitaire::Card", ptr %6, i32 0, i32 1
  %8 = load i32, ptr %7, align 4
  %9 = load ptr, ptr %5, align 8
  %10 = getelementptr inbounds nuw %"class.open_spiel::solitaire::Card", ptr %9, i32 0, i32 1
  %11 = load i32, ptr %10, align 4
  %12 = icmp ne i32 %8, %11
  br i1 %12, label %13, label %20

13:                                               ; preds = %2
  %14 = getelementptr inbounds nuw %"class.open_spiel::solitaire::Card", ptr %6, i32 0, i32 1
  %15 = load i32, ptr %14, align 4
  %16 = load ptr, ptr %5, align 8
  %17 = getelementptr inbounds nuw %"class.open_spiel::solitaire::Card", ptr %16, i32 0, i32 1
  %18 = load i32, ptr %17, align 4
  %19 = icmp slt i32 %15, %18
  store i1 %19, ptr %3, align 1
  br label %35

20:                                               ; preds = %2
  %21 = getelementptr inbounds nuw %"class.open_spiel::solitaire::Card", ptr %6, i32 0, i32 0
  %22 = load i32, ptr %21, align 4
  %23 = load ptr, ptr %5, align 8
  %24 = getelementptr inbounds nuw %"class.open_spiel::solitaire::Card", ptr %23, i32 0, i32 0
  %25 = load i32, ptr %24, align 4
  %26 = icmp ne i32 %22, %25
  br i1 %26, label %27, label %34

27:                                               ; preds = %20
  %28 = getelementptr inbounds nuw %"class.open_spiel::solitaire::Card", ptr %6, i32 0, i32 0
  %29 = load i32, ptr %28, align 4
  %30 = load ptr, ptr %5, align 8
  %31 = getelementptr inbounds nuw %"class.open_spiel::solitaire::Card", ptr %30, i32 0, i32 0
  %32 = load i32, ptr %31, align 4
  %33 = icmp slt i32 %29, %32
  store i1 %33, ptr %3, align 1
  br label %35

34:                                               ; preds = %20
  store i1 false, ptr %3, align 1
  br label %35

35:                                               ; preds = %34, %27, %13
  %36 = load i1, ptr %3, align 1
  ret i1 %36
}