; Function Attrs: mustprogress nofree norecurse nosync nounwind willreturn memory(argmem: read) uwtable
define noundef zeroext i1 @_ZNK10open_spiel9solitaire4CardltERKS1_(ptr nocapture noundef nonnull readonly align 4 dereferenceable(20) %0, ptr nocapture noundef nonnull readonly align 4 dereferenceable(20) %1) local_unnamed_addr #10 align 2 {
  %3 = getelementptr inbounds nuw i8, ptr %0, i64 4
  %4 = load i32, ptr %3, align 4
  %5 = getelementptr inbounds nuw i8, ptr %1, i64 4
  %6 = load i32, ptr %5, align 4
  %.not = icmp eq i32 %4, %6
  %7 = icmp slt i32 %4, %6
  %8 = load i32, ptr %0, align 4
  %9 = load i32, ptr %1, align 4
  %10 = icmp slt i32 %8, %9
  %.0 = select i1 %.not, i1 %10, i1 %7
  ret i1 %.0
}